; Function Attrs: mustprogress uwtable
define noundef float @_ZN5ImGui14GetColumnWidthEi(i32 noundef %0) local_unnamed_addr #3 {
  %2 = load ptr, ptr @GImGui, align 8, !tbaa !3
  %3 = getelementptr inbounds nuw i8, ptr %2, i64 5016
  %4 = load ptr, ptr %3, align 8, !tbaa !8
  %5 = getelementptr inbounds nuw i8, ptr %4, i64 448
  %6 = load ptr, ptr %5, align 8, !tbaa !615
  %7 = icmp eq ptr %6, null
  br i1 %7, label %8, label %10

8:                                                ; preds = %1
  %9 = tail call <2 x float> @_ZN5ImGui21GetContentRegionAvailEv()
  %.sroa.0.0.vec.extract = extractelement <2 x float> %9, i64 0
  br label %30

10:                                               ; preds = %1
  %11 = icmp slt i32 %0, 0
  br i1 %11, label %12, label %15

12:                                               ; preds = %10
  %13 = getelementptr inbounds nuw i8, ptr %6, i64 12
  %14 = load i32, ptr %13, align 4, !tbaa !616
  br label %15

15:                                               ; preds = %12, %10
  %.010 = phi i32 [ %14, %12 ], [ %0, %10 ]
  %16 = getelementptr inbounds nuw i8, ptr %6, i64 104
  %17 = load ptr, ptr %16, align 8, !tbaa !623
  %18 = sext i32 %.010 to i64
  %19 = getelementptr %struct.ImGuiOldColumnData, ptr %17, i64 %18
  %20 = getelementptr i8, ptr %19, i64 28
  %21 = load float, ptr %20, align 4, !tbaa !624
  %22 = load float, ptr %19, align 4, !tbaa !624
  %23 = fsub float %21, %22
  %24 = getelementptr inbounds nuw i8, ptr %6, i64 24
  %25 = load float, ptr %24, align 8, !tbaa !621
  %26 = getelementptr inbounds nuw i8, ptr %6, i64 20
  %27 = load float, ptr %26, align 4, !tbaa !622
  %28 = fsub float %25, %27
  %29 = fmul float %23, %28
  br label %30

30:                                               ; preds = %15, %8
  %.0 = phi float [ %.sroa.0.0.vec.extract, %8 ], [ %29, %15 ]
  ret float %.0
}